target datalayout = "e-m:e-p270:32:32-p271:32:32-p272:64:64-i64:64-i128:128-f80:128-n8:16:32:64-S128"
target triple = "x86_64-pc-linux-gnu"

%struct.ExplainState = type { ptr, i8, i8, i8, i8, i8, i8, i8, i8, i8, i8, i32, i32, i32, ptr, ptr, ptr, ptr, ptr, ptr, i8, i32, ptr }
%struct.StringInfoData = type { ptr, i32, i32, i32 }

@.str.54 = private unnamed_addr constant [4 x i8] c"%ld\00", align 1
@.str.86 = private unnamed_addr constant [3 x i8] c"kB\00", align 1
@.str.268 = private unnamed_addr constant [8 x i8] c"Storage\00", align 1
@.str.269 = private unnamed_addr constant [16 x i8] c"Maximum Storage\00", align 1
@.str.270 = private unnamed_addr constant [37 x i8] c"Storage: %s  Maximum Storage: %ldkB\0A\00", align 1

; Function Attrs: nounwind uwtable
define internal void @ExplainIndentText(ptr noundef %0) #0 {
  %2 = alloca ptr, align 8
  store ptr %0, ptr %2, align 8
  %3 = load ptr, ptr %2, align 8
  %4 = getelementptr inbounds nuw %struct.ExplainState, ptr %3, i32 0, i32 0
  %5 = load ptr, ptr %4, align 8
  %6 = getelementptr inbounds nuw %struct.StringInfoData, ptr %5, i32 0, i32 1
  %7 = load i32, ptr %6, align 8
  %8 = icmp eq i32 %7, 0
  br i1 %8, label %26, label %9

9:                                                ; preds = %1
  %10 = load ptr, ptr %2, align 8
  %11 = getelementptr inbounds nuw %struct.ExplainState, ptr %10, i32 0, i32 0
  %12 = load ptr, ptr %11, align 8
  %13 = getelementptr inbounds nuw %struct.StringInfoData, ptr %12, i32 0, i32 0
  %14 = load ptr, ptr %13, align 8
  %15 = load ptr, ptr %2, align 8
  %16 = getelementptr inbounds nuw %struct.ExplainState, ptr %15, i32 0, i32 0
  %17 = load ptr, ptr %16, align 8
  %18 = getelementptr inbounds nuw %struct.StringInfoData, ptr %17, i32 0, i32 1
  %19 = load i32, ptr %18, align 8
  %20 = sub i32 %19, 1
  %21 = sext i32 %20 to i64
  %22 = getelementptr inbounds i8, ptr %14, i64 %21
  %23 = load i8, ptr %22, align 1
  %24 = sext i8 %23 to i32
  %25 = icmp eq i32 %24, 10
  br i1 %25, label %26, label %34

26:                                               ; preds = %9, %1
  %27 = load ptr, ptr %2, align 8
  %28 = getelementptr inbounds nuw %struct.ExplainState, ptr %27, i32 0, i32 0
  %29 = load ptr, ptr %28, align 8
  %30 = load ptr, ptr %2, align 8
  %31 = getelementptr inbounds nuw %struct.ExplainState, ptr %30, i32 0, i32 13
  %32 = load i32, ptr %31, align 4
  %33 = mul i32 %32, 2
  call void @appendStringInfoSpaces(ptr noundef %29, i32 noundef %33)
  br label %34

34:                                               ; preds = %26, %9
  ret void
}

; Function Attrs: nounwind uwtable
define dso_local void @ExplainPropertyInteger(ptr noundef %0, ptr noundef %1, i64 noundef %2, ptr noundef %3) #0 {
  %5 = alloca ptr, align 8
  %6 = alloca ptr, align 8
  %7 = alloca i64, align 8
  %8 = alloca ptr, align 8
  %9 = alloca [32 x i8], align 16
  store ptr %0, ptr %5, align 8
  store ptr %1, ptr %6, align 8
  store i64 %2, ptr %7, align 8
  store ptr %3, ptr %8, align 8
  call void @llvm.lifetime.start.p0(i64 32, ptr %9) #10
  %10 = getelementptr inbounds [32 x i8], ptr %9, i64 0, i64 0
  %11 = load i64, ptr %7, align 8
  %12 = call i32 (ptr, i64, ptr, ...) @pg_snprintf(ptr noundef %10, i64 noundef 32, ptr noundef @.str.54, i64 noundef %11)
  %13 = load ptr, ptr %5, align 8
  %14 = load ptr, ptr %6, align 8
  %15 = getelementptr inbounds [32 x i8], ptr %9, i64 0, i64 0
  %16 = load ptr, ptr %8, align 8
  call void @ExplainProperty(ptr noundef %13, ptr noundef %14, ptr noundef %15, i1 noundef zeroext true, ptr noundef %16)
  call void @llvm.lifetime.end.p0(i64 32, ptr %9) #10
  ret void
}

; Function Attrs: nounwind uwtable
define dso_local void @ExplainPropertyText(ptr noundef %0, ptr noundef %1, ptr noundef %2) #0 {
  %4 = alloca ptr, align 8
  %5 = alloca ptr, align 8
  %6 = alloca ptr, align 8
  store ptr %0, ptr %4, align 8
  store ptr %1, ptr %5, align 8
  store ptr %2, ptr %6, align 8
  %7 = load ptr, ptr %4, align 8
  %8 = load ptr, ptr %5, align 8
  %9 = load ptr, ptr %6, align 8
  call void @ExplainProperty(ptr noundef %7, ptr noundef null, ptr noundef %8, i1 noundef zeroext false, ptr noundef %9)
  ret void
}

; Function Attrs: nounwind uwtable
define internal void @show_storage_info(ptr noundef %0, i64 noundef %1, ptr noundef %2) #0 {
  %4 = alloca ptr, align 8
  %5 = alloca i64, align 8
  %6 = alloca ptr, align 8
  %7 = alloca i64, align 8
  store ptr %0, ptr %4, align 8
  store i64 %1, ptr %5, align 8
  store ptr %2, ptr %6, align 8
  call void @llvm.lifetime.start.p0(i64 8, ptr %7) #10
  %8 = load i64, ptr %5, align 8
  %9 = add i64 %8, 1023
  %10 = sdiv i64 %9, 1024
  store i64 %10, ptr %7, align 8
  %11 = load ptr, ptr %6, align 8
  %12 = getelementptr inbounds nuw %struct.ExplainState, ptr %11, i32 0, i32 12
  %13 = load i32, ptr %12, align 8
  %14 = icmp ne i32 %13, 0
  br i1 %14, label %15, label %20

15:                                               ; preds = %3
  %16 = load ptr, ptr %4, align 8
  %17 = load ptr, ptr %6, align 8
  call void @ExplainPropertyText(ptr noundef @.str.268, ptr noundef %16, ptr noundef %17)
  %18 = load i64, ptr %7, align 8
  %19 = load ptr, ptr %6, align 8
  call void @ExplainPropertyInteger(ptr noundef @.str.269, ptr noundef @.str.86, i64 noundef %18, ptr noundef %19)
  br label %27

20:                                               ; preds = %3
  %21 = load ptr, ptr %6, align 8
  call void @ExplainIndentText(ptr noundef %21)
  %22 = load ptr, ptr %6, align 8
  %23 = getelementptr inbounds nuw %struct.ExplainState, ptr %22, i32 0, i32 0
  %24 = load ptr, ptr %23, align 8
  %25 = load ptr, ptr %4, align 8
  %26 = load i64, ptr %7, align 8
  call void (ptr, ptr, ...) @appendStringInfo(ptr noundef %24, ptr noundef @.str.270, ptr noundef %25, i64 noundef %26)
  br label %27

27:                                               ; preds = %20, %15
  call void @llvm.lifetime.end.p0(i64 8, ptr %7) #10
  ret void
}