; Function Attrs: nounwind uwtable
define internal fastcc void @show_storage_info(ptr noundef %0, i64 noundef %1, ptr noundef readonly captures(none) %2) unnamed_addr #0 {
  %4 = alloca [32 x i8], align 16
  %5 = add i64 %1, 1023
  %6 = sdiv i64 %5, 1024
  %7 = getelementptr inbounds nuw i8, ptr %2, i64 24
  %8 = load i32, ptr %7, align 8
  %.not = icmp eq i32 %8, 0
  br i1 %.not, label %11, label %9

9:                                                ; preds = %3
  tail call fastcc void @ExplainProperty(ptr noundef nonnull @.str.268, ptr noundef null, ptr noundef %0, i1 noundef zeroext false, ptr noundef nonnull readonly %2)
  call void @llvm.lifetime.start.p0(i64 32, ptr nonnull %4) #13
  %10 = call i32 (ptr, i64, ptr, ...) @pg_snprintf(ptr noundef nonnull %4, i64 noundef 32, ptr noundef nonnull @.str.54, i64 noundef %6) #13
  call fastcc void @ExplainProperty(ptr noundef nonnull @.str.269, ptr noundef nonnull @.str.86, ptr noundef nonnull %4, i1 noundef zeroext true, ptr noundef nonnull readonly %2)
  call void @llvm.lifetime.end.p0(i64 32, ptr nonnull %4) #13
  br label %28

11:                                               ; preds = %3
  %12 = load ptr, ptr %2, align 8
  %13 = getelementptr inbounds nuw i8, ptr %12, i64 8
  %14 = load i32, ptr %13, align 8
  %15 = icmp eq i32 %14, 0
  br i1 %15, label %23, label %16

16:                                               ; preds = %11
  %17 = load ptr, ptr %12, align 8
  %18 = add i32 %14, -1
  %19 = sext i32 %18 to i64
  %20 = getelementptr inbounds i8, ptr %17, i64 %19
  %21 = load i8, ptr %20, align 1
  %22 = icmp eq i8 %21, 10
  br i1 %22, label %23, label %ExplainIndentText.exit

23:                                               ; preds = %16, %11
  %24 = getelementptr inbounds nuw i8, ptr %2, i64 28
  %25 = load i32, ptr %24, align 4
  %26 = shl i32 %25, 1
  tail call void @appendStringInfoSpaces(ptr noundef nonnull %12, i32 noundef %26) #13
  %.pre = load ptr, ptr %2, align 8
  br label %ExplainIndentText.exit

ExplainIndentText.exit:                           ; preds = %16, %23
  %27 = phi ptr [ %12, %16 ], [ %.pre, %23 ]
  tail call void (ptr, ptr, ...) @appendStringInfo(ptr noundef %27, ptr noundef nonnull @.str.270, ptr noundef %0, i64 noundef %6) #13
  br label %28

28:                                               ; preds = %ExplainIndentText.exit, %9
  ret void
}